; ModuleID = 'source-C-CXX/20/823.cpp'
source_filename = "source-C-CXX/20/823.cpp"
target datalayout = "e-m:e-p270:32:32-p271:32:32-p272:64:64-i64:64-f80:128-n8:16:32:64-S128"
target triple = "x86_64-pc-linux-gnu"

%"class.std::ios_base::Init" = type { i8 }
%"class.std::basic_istream" = type { i32 (...)**, i64, %"class.std::basic_ios" }
%"class.std::basic_ios" = type { %"class.std::ios_base", %"class.std::basic_ostream"*, i8, i8, %"class.std::basic_streambuf"*, %"class.std::ctype"*, %"class.std::num_put"*, %"class.std::num_get"* }
%"class.std::ios_base" = type { i32 (...)**, i64, i64, i32, i32, i32, %"struct.std::ios_base::_Callback_list"*, %"struct.std::ios_base::_Words", [8 x %"struct.std::ios_base::_Words"], i32, %"struct.std::ios_base::_Words"*, %"class.std::locale" }
%"struct.std::ios_base::_Callback_list" = type { %"struct.std::ios_base::_Callback_list"*, void (i32, %"class.std::ios_base"*, i32)*, i32, i32 }
%"struct.std::ios_base::_Words" = type { i8*, i64 }
%"class.std::locale" = type { %"class.std::locale::_Impl"* }
%"class.std::locale::_Impl" = type { i32, %"class.std::locale::facet"**, i64, %"class.std::locale::facet"**, i8** }
%"class.std::locale::facet" = type <{ i32 (...)**, i32, [4 x i8] }>
%"class.std::basic_ostream" = type { i32 (...)**, %"class.std::basic_ios" }
%"class.std::basic_streambuf" = type { i32 (...)**, i8*, i8*, i8*, i8*, i8*, i8*, %"class.std::locale" }
%"class.std::ctype" = type <{ %"class.std::locale::facet.base", [4 x i8], %struct.__locale_struct*, i8, [7 x i8], i32*, i32*, i16*, i8, [256 x i8], [256 x i8], i8, [6 x i8] }>
%"class.std::locale::facet.base" = type <{ i32 (...)**, i32 }>
%struct.__locale_struct = type { [13 x %struct.__locale_data*], i16*, i32*, i32*, [13 x i8*] }
%struct.__locale_data = type opaque
%"class.std::num_put" = type { %"class.std::locale::facet.base", [4 x i8] }
%"class.std::num_get" = type { %"class.std::locale::facet.base", [4 x i8] }

@_ZStL8__ioinit = internal global %"class.std::ios_base::Init" zeroinitializer, align 1
@__dso_handle = external hidden global i8
@_ZSt3cin = external global %"class.std::basic_istream", align 8
@_ZSt4cout = external global %"class.std::basic_ostream", align 8
@.str = private unnamed_addr constant [2 x i8] c",\00", align 1
@llvm.global_ctors = appending global [1 x { i32, void ()*, i8* }] [{ i32, void ()*, i8* } { i32 65535, void ()* @_GLOBAL__sub_I_823.cpp, i8* null }]

declare void @_ZNSt8ios_base4InitC1Ev(%"class.std::ios_base::Init"* nonnull align 1 dereferenceable(1)) unnamed_addr #0

; Function Attrs: nounwind
declare void @_ZNSt8ios_base4InitD1Ev(%"class.std::ios_base::Init"* nonnull align 1 dereferenceable(1)) unnamed_addr #1

; Function Attrs: nofree nounwind
declare i32 @__cxa_atexit(void (i8*)*, i8*, i8*) local_unnamed_addr #2

; Function Attrs: mustprogress norecurse sspstrong uwtable
define dso_local i32 @main() local_unnamed_addr #3 {
  %1 = alloca i32, align 4
  %2 = alloca i32, align 4
  %3 = alloca [301 x i32], align 16
  %4 = alloca [301 x double], align 16
  %5 = alloca [301 x double], align 16
  %6 = bitcast i32* %1 to i8*
  call void @llvm.lifetime.start.p0i8(i64 4, i8* nonnull %6) #8
  %7 = bitcast i32* %2 to i8*
  call void @llvm.lifetime.start.p0i8(i64 4, i8* nonnull %7) #8
  %8 = bitcast [301 x i32]* %3 to i8*
  call void @llvm.lifetime.start.p0i8(i64 1204, i8* nonnull %8) #8
  call void @llvm.memset.p0i8.i64(i8* noundef nonnull align 16 dereferenceable(1204) %8, i8 0, i64 1204, i1 false)
  %9 = bitcast [301 x double]* %4 to i8*
  call void @llvm.lifetime.start.p0i8(i64 2408, i8* nonnull %9) #8
  %10 = bitcast [301 x double]* %5 to i8*
  call void @llvm.lifetime.start.p0i8(i64 2408, i8* nonnull %10) #8
  call void @llvm.memset.p0i8.i64(i8* noundef nonnull align 16 dereferenceable(2408) %10, i8 0, i64 2408, i1 false)
  %11 = call nonnull align 8 dereferenceable(16) %"class.std::basic_istream"* @_ZNSirsERi(%"class.std::basic_istream"* nonnull align 8 dereferenceable(16) @_ZSt3cin, i32* nonnull align 4 dereferenceable(4) %1)
  store i32 0, i32* %2, align 4, !tbaa !5
  %12 = load i32, i32* %1, align 4, !tbaa !5
  %13 = icmp sgt i32 %12, 0
  br i1 %13, label %15, label %14

14:                                               ; preds = %0
  store i32 0, i32* %2, align 4, !tbaa !5
  br label %81

15:                                               ; preds = %0, %15
  %16 = phi double [ %22, %15 ], [ 0.000000e+00, %0 ]
  %17 = phi i32 [ %23, %15 ], [ 0, %0 ]
  %18 = zext i32 %17 to i64
  %19 = getelementptr inbounds [301 x double], [301 x double]* %4, i64 0, i64 %18
  %20 = call nonnull align 8 dereferenceable(16) %"class.std::basic_istream"* @_ZNSi10_M_extractIdEERSiRT_(%"class.std::basic_istream"* nonnull align 8 dereferenceable(16) @_ZSt3cin, double* nonnull align 8 dereferenceable(8) %19)
  %21 = load double, double* %19, align 8, !tbaa !9
  %22 = fadd double %16, %21
  %23 = add nuw nsw i32 %17, 1
  store i32 %23, i32* %2, align 4, !tbaa !5
  %24 = load i32, i32* %1, align 4, !tbaa !5
  %25 = icmp slt i32 %23, %24
  br i1 %25, label %15, label %26, !llvm.loop !11

26:                                               ; preds = %15
  %27 = sitofp i32 %24 to double
  %28 = fdiv double %22, %27
  %29 = icmp sgt i32 %24, 0
  br i1 %29, label %31, label %30

30:                                               ; preds = %26
  store i32 0, i32* %2, align 4, !tbaa !5
  br label %81

31:                                               ; preds = %26
  %32 = zext i32 %24 to i64
  br label %34

33:                                               ; preds = %50
  store i32 0, i32* %2, align 4, !tbaa !5
  br i1 %29, label %55, label %81

34:                                               ; preds = %31, %50
  %35 = phi i64 [ 0, %31 ], [ %53, %50 ]
  %36 = phi double [ 0.000000e+00, %31 ], [ %52, %50 ]
  %37 = phi i32 [ 300, %31 ], [ %51, %50 ]
  %38 = getelementptr inbounds [301 x double], [301 x double]* %4, i64 0, i64 %35
  %39 = load double, double* %38, align 8, !tbaa !9
  %40 = fsub double %39, %28
  %41 = call double @llvm.fabs.f64(double %40)
  %42 = getelementptr inbounds [301 x double], [301 x double]* %5, i64 0, i64 %35
  store double %41, double* %42, align 8, !tbaa !9
  %43 = fsub double %41, %36
  %44 = fcmp ogt double %43, 0.000000e+00
  br i1 %44, label %45, label %50

45:                                               ; preds = %34
  %46 = sext i32 %37 to i64
  %47 = getelementptr inbounds [301 x i32], [301 x i32]* %3, i64 0, i64 %46
  store i32 0, i32* %47, align 4, !tbaa !5
  %48 = getelementptr inbounds [301 x i32], [301 x i32]* %3, i64 0, i64 %35
  store i32 1, i32* %48, align 4, !tbaa !5
  %49 = trunc i64 %35 to i32
  br label %50

50:                                               ; preds = %34, %45
  %51 = phi i32 [ %49, %45 ], [ %37, %34 ]
  %52 = phi double [ %41, %45 ], [ %36, %34 ]
  %53 = add nuw nsw i64 %35, 1
  %54 = icmp eq i64 %53, %32
  br i1 %54, label %33, label %34, !llvm.loop !13

55:                                               ; preds = %33, %76
  %56 = phi i32 [ %77, %76 ], [ 0, %33 ]
  %57 = phi i32 [ %78, %76 ], [ 0, %33 ]
  %58 = zext i32 %57 to i64
  %59 = getelementptr inbounds [301 x i32], [301 x i32]* %3, i64 0, i64 %58
  %60 = load i32, i32* %59, align 4, !tbaa !5
  %61 = icmp eq i32 %60, 1
  br i1 %61, label %68, label %62

62:                                               ; preds = %55
  %63 = getelementptr inbounds [301 x double], [301 x double]* %5, i64 0, i64 %58
  %64 = load double, double* %63, align 8, !tbaa !9
  %65 = fsub double %64, %52
  %66 = call double @llvm.fabs.f64(double %65)
  %67 = fcmp olt double %66, 1.000000e-09
  br i1 %67, label %68, label %76

68:                                               ; preds = %62, %55
  %69 = icmp eq i32 %56, 0
  br i1 %69, label %72, label %70

70:                                               ; preds = %68
  %71 = call nonnull align 8 dereferenceable(8) %"class.std::basic_ostream"* @_ZSt16__ostream_insertIcSt11char_traitsIcEERSt13basic_ostreamIT_T0_ES6_PKS3_l(%"class.std::basic_ostream"* nonnull align 8 dereferenceable(8) @_ZSt4cout, i8* nonnull getelementptr inbounds ([2 x i8], [2 x i8]* @.str, i64 0, i64 0), i64 1)
  br label %72

72:                                               ; preds = %68, %70
  %73 = getelementptr inbounds [301 x double], [301 x double]* %4, i64 0, i64 %58
  %74 = load double, double* %73, align 8, !tbaa !9
  %75 = call nonnull align 8 dereferenceable(8) %"class.std::basic_ostream"* @_ZNSo9_M_insertIdEERSoT_(%"class.std::basic_ostream"* nonnull align 8 dereferenceable(8) @_ZSt4cout, double %74)
  br label %76

76:                                               ; preds = %72, %62
  %77 = phi i32 [ %56, %62 ], [ 1, %72 ]
  %78 = add nuw nsw i32 %57, 1
  store i32 %78, i32* %2, align 4, !tbaa !5
  %79 = load i32, i32* %1, align 4, !tbaa !5
  %80 = icmp slt i32 %78, %79
  br i1 %80, label %55, label %81, !llvm.loop !14

81:                                               ; preds = %76, %14, %30, %33
  %82 = call nonnull align 8 dereferenceable(16) %"class.std::basic_istream"* @_ZNSirsERi(%"class.std::basic_istream"* nonnull align 8 dereferenceable(16) @_ZSt3cin, i32* nonnull align 4 dereferenceable(4) %2)
  call void @llvm.lifetime.end.p0i8(i64 2408, i8* nonnull %10) #8
  call void @llvm.lifetime.end.p0i8(i64 2408, i8* nonnull %9) #8
  call void @llvm.lifetime.end.p0i8(i64 1204, i8* nonnull %8) #8
  call void @llvm.lifetime.end.p0i8(i64 4, i8* nonnull %7) #8
  call void @llvm.lifetime.end.p0i8(i64 4, i8* nonnull %6) #8
  ret i32 0
}

; Function Attrs: argmemonly mustprogress nofree nosync nounwind willreturn
declare void @llvm.lifetime.start.p0i8(i64 immarg, i8* nocapture) #4

; Function Attrs: argmemonly mustprogress nofree nounwind willreturn writeonly
declare void @llvm.memset.p0i8.i64(i8* nocapture writeonly, i8, i64, i1 immarg) #5

declare nonnull align 8 dereferenceable(16) %"class.std::basic_istream"* @_ZNSirsERi(%"class.std::basic_istream"* nonnull align 8 dereferenceable(16), i32* nonnull align 4 dereferenceable(4)) local_unnamed_addr #0

; Function Attrs: mustprogress nofree nosync nounwind readnone speculatable willreturn
declare double @llvm.fabs.f64(double) #6

; Function Attrs: argmemonly mustprogress nofree nosync nounwind willreturn
declare void @llvm.lifetime.end.p0i8(i64 immarg, i8* nocapture) #4

declare nonnull align 8 dereferenceable(16) %"class.std::basic_istream"* @_ZNSi10_M_extractIdEERSiRT_(%"class.std::basic_istream"* nonnull align 8 dereferenceable(16), double* nonnull align 8 dereferenceable(8)) local_unnamed_addr #0

declare nonnull align 8 dereferenceable(8) %"class.std::basic_ostream"* @_ZNSo9_M_insertIdEERSoT_(%"class.std::basic_ostream"* nonnull align 8 dereferenceable(8), double) local_unnamed_addr #0

declare nonnull align 8 dereferenceable(8) %"class.std::basic_ostream"* @_ZSt16__ostream_insertIcSt11char_traitsIcEERSt13basic_ostreamIT_T0_ES6_PKS3_l(%"class.std::basic_ostream"* nonnull align 8 dereferenceable(8), i8*, i64) local_unnamed_addr #0

; Function Attrs: sspstrong uwtable
define internal void @_GLOBAL__sub_I_823.cpp() #7 section ".text.startup" {
  tail call void @_ZNSt8ios_base4InitC1Ev(%"class.std::ios_base::Init"* nonnull align 1 dereferenceable(1) @_ZStL8__ioinit)
  %1 = tail call i32 @__cxa_atexit(void (i8*)* bitcast (void (%"class.std::ios_base::Init"*)* @_ZNSt8ios_base4InitD1Ev to void (i8*)*), i8* getelementptr inbounds (%"class.std::ios_base::Init", %"class.std::ios_base::Init"* @_ZStL8__ioinit, i64 0, i32 0), i8* nonnull @__dso_handle) #8
  ret void
}


!llvm.module.flags = !{!0, !1, !2, !3}
!llvm.ident = !{!4}

!0 = !{i32 1, !"wchar_size", i32 4}
!1 = !{i32 7, !"PIC Level", i32 2}
!2 = !{i32 7, !"PIE Level", i32 2}
!3 = !{i32 7, !"uwtable", i32 1}
!4 = !{!"clang version 13.0.0"}
!5 = !{!6, !6, i64 0}
!6 = !{!"int", !7, i64 0}
!7 = !{!"omnipotent char", !8, i64 0}
!8 = !{!"Simple C++ TBAA"}
!9 = !{!10, !10, i64 0}
!10 = !{!"double", !7, i64 0}
!11 = distinct !{!11, !12}
!12 = !{!"llvm.loop.mustprogress"}
!13 = distinct !{!13, !12}
!14 = distinct !{!14, !12}
